Certificate:
    Data:
        Version: 3 (0x2)
        Serial Number: 1 (0x1)
    Signature Algorithm: ecdsa-with-SHA256
        Issuer: O=Example Inc., OU=Example Inc. Root CA, CN=Example Inc. Root CA
        Validity
            Not Before: Jan 30 22:03:08 2018 GMT
            Not After : Jan 30 22:03:08 2028 GMT
        Subject: O=Example Inc., OU=Example Inc. Signing CA, CN=Example Inc. Signing CA
        Subject Public Key Info:
            Public Key Algorithm: id-ecPublicKey
                Public-Key: (384 bit)
                pub: 
                    04:13:59:17:f5:b8:bb:88:38:2a:a9:64:26:d9:3a:
                    35:80:2e:dd:a6:8c:fc:32:2b:43:05:22:f8:aa:c2:
                    af:e1:35:77:b8:61:0d:47:57:4f:d9:c7:ac:58:2a:
                    a9:6c:b6:b1:dd:f0:42:9a:cb:31:92:91:1a:e7:ff:
                    86:96:23:a3:f9:22:8a:e2:6d:5e:9d:1e:12:98:f0:
                    f3:d7:59:b3:63:8e:26:cb:f2:2e:96:f1:f2:d7:08:
                    1d:28:05:f2:67:bb:b0
                ASN1 OID: secp384r1
                NIST CURVE: P-384
        X509v3 extensions:
            X509v3 Key Usage: critical
                Certificate Sign, CRL Sign
            X509v3 Basic Constraints: critical
                CA:TRUE, pathlen:0
            X509v3 Subject Key Identifier: 
                FC:F5:00:6E:AD:F0:2D:E8:42:8C:8D:13:15:A4:CF:1A:65:58:7E:AE
            X509v3 Authority Key Identifier: 
                keyid:C1:C2:C0:4C:18:86:7B:44:02:76:8A:69:6B:CF:06:5C:2A:76:A1:EF

    Signature Algorithm: ecdsa-with-SHA256
         30:65:02:31:00:d9:b2:71:42:4d:9e:9b:51:b9:b9:da:1f:77:
         a8:cc:03:07:a9:4f:70:f7:27:73:c6:1c:ae:cf:56:ed:ef:e1:
         f7:90:e1:78:df:11:15:21:4e:8c:80:3d:4d:ba:e2:cc:1d:02:
         30:1d:b4:e6:78:4c:9d:87:af:eb:7b:79:4d:93:34:0f:4c:48:
         6b:38:dd:5e:12:fc:38:4f:63:7f:ff:c2:0b:0d:fd:ee:35:69:
         8c:a9:d5:7c:7a:e3:3c:f7:b1:81:a7:1d:eb
-----BEGIN CERTIFICATE-----
MIICQjCCAcigAwIBAgIBATAKBggqhkjOPQQDAjBVMRUwEwYDVQQKDAxFeGFtcGxl
IEluYy4xHTAbBgNVBAsMFEV4YW1wbGUgSW5jLiBSb290IENBMR0wGwYDVQQDDBRF
eGFtcGxlIEluYy4gUm9vdCBDQTAeFw0xODAxMzAyMjAzMDhaFw0yODAxMzAyMjAz
MDhaMFsxFTATBgNVBAoMDEV4YW1wbGUgSW5jLjEgMB4GA1UECwwXRXhhbXBsZSBJ
bmMuIFNpZ25pbmcgQ0ExIDAeBgNVBAMMF0V4YW1wbGUgSW5jLiBTaWduaW5nIENB
MHYwEAYHKoZIzj0CAQYFK4EEACIDYgAEE1kX9bi7iDgqqWQm2To1gC7dpoz8MitD
BSL4qsKv4TV3uGENR1dP2cesWCqpbLax3fBCmssxkpEa5/+GliOj+SKK4m1enR4S
mPDz11mzY44my/IulvHy1wgdKAXyZ7uwo2YwZDAOBgNVHQ8BAf8EBAMCAQYwEgYD
VR0TAQH/BAgwBgEB/wIBADAdBgNVHQ4EFgQU/PUAbq3wLehCjI0TFaTPGmVYfq4w
HwYDVR0jBBgwFoAUwcLATBiGe0QCdoppa88GXCp2oe8wCgYIKoZIzj0EAwIDaAAw
ZQIxANmycUJNnptRubnaH3eozAMHqU9w9ydzxhyuz1bt7+H3kOF43xEVIU6MgD1N
uuLMHQIwHbTmeEydh6/re3lNkzQPTEhrON1eEvw4T2N//8ILDf3uNWmMqdV8euM8
97GBpx3r
-----END CERTIFICATE-----
-----BEGIN CERTIFICATE-----
MIICQTCCAcegAwIBAgIJAMo5ttYdFK4WMAoGCCqGSM49BAMCMFUxFTATBgNVBAoM
DEV4YW1wbGUgSW5jLjEdMBsGA1UECwwURXhhbXBsZSBJbmMuIFJvb3QgQ0ExHTAb
BgNVBAMMFEV4YW1wbGUgSW5jLiBSb290IENBMB4XDTE4MDEzMDIyMDMwOFoXDTE4
MDMwMTIyMDMwOFowVTEVMBMGA1UECgwMRXhhbXBsZSBJbmMuMR0wGwYDVQQLDBRF
eGFtcGxlIEluYy4gUm9vdCBDQTEdMBsGA1UEAwwURXhhbXBsZSBJbmMuIFJvb3Qg
Q0EwdjAQBgcqhkjOPQIBBgUrgQQAIgNiAARI6wrKVomxTYl8/HxB/EwYZG0C7nEi
aEBJD++S0p6qVtkVAURpMumQNXNRIi3lT+1UQjUM9GdnS5gksddrL39GgTFcrqNB
ViY+lteBf/yPazu6JywFjrvucm2R/03RuPijYzBhMA4GA1UdDwEB/wQEAwIBBjAP
BgNVHRMBAf8EBTADAQH/MB0GA1UdDgQWBBTBwsBMGIZ7RAJ2imlrzwZcKnah7zAf
BgNVHSMEGDAWgBTBwsBMGIZ7RAJ2imlrzwZcKnah7zAKBggqhkjOPQQDAgNoADBl
AjAqUxJcLExEgTPBg+txbmvXuRWNWb6nw/9ulkYZxngViAeHc+fYM1dW8ou6ZGcV
YEUCMQCam+LuvyzR2aWlugItc95+WtiG72vWyiCkLnnkxET/lrhkAAHmkpLVMX7a
RrGOsMw=
-----END CERTIFICATE-----
